; Function Attrs: nofree norecurse nosync nounwind memory(readwrite, inaccessiblemem: none) uwtable
define internal noundef i32 @unpack_16bit_3chan_interleave(ptr noundef readonly captures(none) %0) #1 {
  %2 = getelementptr inbounds nuw i8, ptr %0, i64 8
  %3 = load ptr, ptr %2, align 8, !tbaa !22
  %4 = getelementptr inbounds nuw i8, ptr %3, i64 12
  %5 = load i32, ptr %4, align 4, !tbaa !65
  %6 = getelementptr inbounds nuw i8, ptr %0, i64 44
  %7 = load i32, ptr %6, align 4, !tbaa !16
  %8 = getelementptr inbounds nuw i8, ptr %0, i64 100
  %9 = load i32, ptr %8, align 4, !tbaa !17
  %10 = sub nsw i32 %7, %9
  %11 = getelementptr inbounds nuw i8, ptr %0, i64 96
  %12 = load i32, ptr %11, align 8, !tbaa !19
  %13 = icmp slt i32 %12, %10
  br i1 %13, label %.lr.ph45, label %._crit_edge46

.lr.ph45:                                         ; preds = %1
  %14 = mul i32 %5, 6
  %15 = getelementptr inbounds nuw i8, ptr %3, i64 36
  %16 = load i32, ptr %15, align 4, !tbaa !32
  %17 = sext i32 %5 to i64
  %18 = sext i32 %14 to i64
  %19 = icmp sgt i32 %5, 0
  %20 = sext i32 %16 to i64
  br i1 %19, label %.lr.ph.us.preheader, label %._crit_edge46

.lr.ph.us.preheader:                              ; preds = %.lr.ph45
  %21 = getelementptr inbounds nuw i8, ptr %3, i64 40
  %22 = load ptr, ptr %21, align 8, !tbaa !3
  %23 = getelementptr inbounds nuw i8, ptr %0, i64 136
  %24 = load ptr, ptr %23, align 8, !tbaa !21
  %25 = mul i32 %14, %12
  %26 = sext i32 %25 to i64
  %27 = getelementptr inbounds i8, ptr %24, i64 %26
  %wide.trip.count = zext nneg i32 %5 to i64
  br label %.lr.ph.us

.lr.ph.us:                                        ; preds = %.lr.ph.us.preheader, %._crit_edge.us
  %.03643.us = phi i32 [ %42, %._crit_edge.us ], [ %12, %.lr.ph.us.preheader ]
  %.03742.us = phi ptr [ %40, %._crit_edge.us ], [ %27, %.lr.ph.us.preheader ]
  %.03841.us = phi ptr [ %41, %._crit_edge.us ], [ %22, %.lr.ph.us.preheader ]
  %28 = getelementptr inbounds nuw i16, ptr %.03742.us, i64 %17
  %29 = getelementptr inbounds nuw i16, ptr %28, i64 %17
  br label %30

30:                                               ; preds = %.lr.ph.us, %30
  %indvars.iv = phi i64 [ 0, %.lr.ph.us ], [ %indvars.iv.next, %30 ]
  %.03539.us = phi ptr [ %.03841.us, %.lr.ph.us ], [ %39, %30 ]
  %31 = getelementptr inbounds nuw i16, ptr %.03742.us, i64 %indvars.iv
  %32 = load i16, ptr %31, align 2, !tbaa !36
  store i16 %32, ptr %.03539.us, align 2, !tbaa !36
  %33 = getelementptr inbounds nuw i16, ptr %28, i64 %indvars.iv
  %34 = load i16, ptr %33, align 2, !tbaa !36
  %35 = getelementptr inbounds nuw i8, ptr %.03539.us, i64 2
  store i16 %34, ptr %35, align 2, !tbaa !36
  %36 = getelementptr inbounds nuw i16, ptr %29, i64 %indvars.iv
  %37 = load i16, ptr %36, align 2, !tbaa !36
  %38 = getelementptr inbounds nuw i8, ptr %.03539.us, i64 4
  store i16 %37, ptr %38, align 2, !tbaa !36
  %39 = getelementptr inbounds nuw i8, ptr %.03539.us, i64 6
  %indvars.iv.next = add nuw nsw i64 %indvars.iv, 1
  %exitcond.not = icmp eq i64 %indvars.iv.next, %wide.trip.count
  br i1 %exitcond.not, label %._crit_edge.us, label %30, !llvm.loop !92

._crit_edge.us:                                   ; preds = %30
  %40 = getelementptr inbounds nuw i8, ptr %.03742.us, i64 %18
  %41 = getelementptr inbounds i8, ptr %.03841.us, i64 %20
  %42 = add nsw i32 %.03643.us, 1
  %43 = icmp slt i32 %42, %10
  br i1 %43, label %.lr.ph.us, label %._crit_edge46, !llvm.loop !93

._crit_edge46:                                    ; preds = %._crit_edge.us, %.lr.ph45, %1
  ret i32 0
}